; Function Attrs: mustprogress nofree norecurse nosync nounwind willreturn memory(read, inaccessiblemem: none) uwtable
define internal noundef float @_ZNK5faiss12_GLOBAL__N_114IVFSQScannerL2INS0_10DCTemplateINS0_19Quantizer8bitDirectILi1EEENS0_12SimilarityL2ILi1EEELi1EEELi1EE16distance_to_codeEPKh(ptr nocapture noundef nonnull readonly align 8 dereferenceable(136) %0, ptr nocapture noundef readonly %1) unnamed_addr #20 align 2 {
  %3 = getelementptr inbounds i8, ptr %0, i64 80
  %.val.i = load i64, ptr %3, align 8
  %.not.i.i = icmp eq i64 %.val.i, 0
  br i1 %.not.i.i, label %_ZNK5faiss12_GLOBAL__N_110DCTemplateINS0_19Quantizer8bitDirectILi1EEENS0_12SimilarityL2ILi1EEELi1EE13query_to_codeEPKh.exit, label %.lr.ph.i.preheader.i

.lr.ph.i.preheader.i:                             ; preds = %2
  %4 = getelementptr inbounds i8, ptr %0, i64 64
  %5 = load ptr, ptr %4, align 8
  br label %.lr.ph.i.i

.lr.ph.i.i:                                       ; preds = %.lr.ph.i.i, %.lr.ph.i.preheader.i
  %.04.i.i = phi i64 [ %14, %.lr.ph.i.i ], [ 0, %.lr.ph.i.preheader.i ]
  %.sroa.5.03.i.i = phi float [ %13, %.lr.ph.i.i ], [ 0.000000e+00, %.lr.ph.i.preheader.i ]
  %.sroa.2.02.i.i = phi ptr [ %10, %.lr.ph.i.i ], [ %5, %.lr.ph.i.preheader.i ]
  %sext.i.i = shl i64 %.04.i.i, 32
  %6 = ashr exact i64 %sext.i.i, 32
  %7 = getelementptr inbounds i8, ptr %1, i64 %6
  %8 = load i8, ptr %7, align 1
  %9 = uitofp i8 %8 to float
  %10 = getelementptr inbounds i8, ptr %.sroa.2.02.i.i, i64 4
  %11 = load float, ptr %.sroa.2.02.i.i, align 4
  %12 = fsub float %11, %9
  %13 = tail call float @llvm.fmuladd.f32(float %12, float %12, float %.sroa.5.03.i.i)
  %14 = add nuw i64 %.04.i.i, 1
  %exitcond.not.i.i = icmp eq i64 %14, %.val.i
  br i1 %exitcond.not.i.i, label %_ZNK5faiss12_GLOBAL__N_110DCTemplateINS0_19Quantizer8bitDirectILi1EEENS0_12SimilarityL2ILi1EEELi1EE13query_to_codeEPKh.exit, label %.lr.ph.i.i, !llvm.loop !59

_ZNK5faiss12_GLOBAL__N_110DCTemplateINS0_19Quantizer8bitDirectILi1EEENS0_12SimilarityL2ILi1EEELi1EE13query_to_codeEPKh.exit: ; preds = %.lr.ph.i.i, %2
  %.sroa.5.0.lcssa.i.i = phi float [ 0.000000e+00, %2 ], [ %13, %.lr.ph.i.i ]
  ret float %.sroa.5.0.lcssa.i.i
}